target datalayout = "e-m:e-p270:32:32-p271:32:32-p272:64:64-i64:64-i128:128-f80:128-n8:16:32:64-S128"
target triple = "x86_64-pc-linux-gnu"

%struct.JNINativeInterface_ = type { ptr, ptr, ptr, ptr, ptr, ptr, ptr, ptr, ptr, ptr, ptr, ptr, ptr, ptr, ptr, ptr, ptr, ptr, ptr, ptr, ptr, ptr, ptr, ptr, ptr, ptr, ptr, ptr, ptr, ptr, ptr, ptr, ptr, ptr, ptr, ptr, ptr, ptr, ptr, ptr, ptr, ptr, ptr, ptr, ptr, ptr, ptr, ptr, ptr, ptr, ptr, ptr, ptr, ptr, ptr, ptr, ptr, ptr, ptr, ptr, ptr, ptr, ptr, ptr, ptr, ptr, ptr, ptr, ptr, ptr, ptr, ptr, ptr, ptr, ptr, ptr, ptr, ptr, ptr, ptr, ptr, ptr, ptr, ptr, ptr, ptr, ptr, ptr, ptr, ptr, ptr, ptr, ptr, ptr, ptr, ptr, ptr, ptr, ptr, ptr, ptr, ptr, ptr, ptr, ptr, ptr, ptr, ptr, ptr, ptr, ptr, ptr, ptr, ptr, ptr, ptr, ptr, ptr, ptr, ptr, ptr, ptr, ptr, ptr, ptr, ptr, ptr, ptr, ptr, ptr, ptr, ptr, ptr, ptr, ptr, ptr, ptr, ptr, ptr, ptr, ptr, ptr, ptr, ptr, ptr, ptr, ptr, ptr, ptr, ptr, ptr, ptr, ptr, ptr, ptr, ptr, ptr, ptr, ptr, ptr, ptr, ptr, ptr, ptr, ptr, ptr, ptr, ptr, ptr, ptr, ptr, ptr, ptr, ptr, ptr, ptr, ptr, ptr, ptr, ptr, ptr, ptr, ptr, ptr, ptr, ptr, ptr, ptr, ptr, ptr, ptr, ptr, ptr, ptr, ptr, ptr, ptr, ptr, ptr, ptr, ptr, ptr, ptr, ptr, ptr, ptr, ptr, ptr, ptr, ptr, ptr, ptr, ptr, ptr, ptr, ptr, ptr, ptr, ptr, ptr, ptr, ptr, ptr, ptr, ptr, ptr, ptr, ptr, ptr, ptr, ptr, ptr, ptr, ptr, ptr }
%struct._netif = type { ptr, i32, i8, ptr, ptr, ptr }
%struct._netaddr = type { ptr, ptr, i16, i32, ptr }
%struct.sockaddr_in = type { i16, i16, %struct.in_addr, [8 x i8] }
%struct.in_addr = type { i32 }
%struct.sockaddr_in6 = type { i16, i16, i32, %struct.in6_addr, i32 }
%struct.in6_addr = type { %union.anon }
%union.anon = type { [4 x i32] }

; Function Attrs: nounwind uwtable
define internal ptr @find_bound_interface(ptr noundef %0, ptr noundef %1, ptr noundef %2, i32 noundef %3) #0 {
  %5 = alloca ptr, align 8
  %6 = alloca ptr, align 8
  %7 = alloca ptr, align 8
  %8 = alloca ptr, align 8
  %9 = alloca i32, align 4
  %10 = alloca ptr, align 8
  %11 = alloca ptr, align 8
  %12 = alloca i32, align 4
  %13 = alloca i32, align 4
  %14 = alloca ptr, align 8
  %15 = alloca [16 x i8], align 16
  %16 = alloca i32, align 4
  %17 = alloca i32, align 4
  store ptr %0, ptr %6, align 8
  store ptr %1, ptr %7, align 8
  store ptr %2, ptr %8, align 8
  store i32 %3, ptr %9, align 4
  %18 = load ptr, ptr %7, align 8
  store ptr %18, ptr %10, align 8
  br label %19

19:                                               ; preds = %123, %4
  %20 = load ptr, ptr %10, align 8
  %21 = icmp ne ptr %20, null
  br i1 %21, label %22, label %127

22:                                               ; preds = %19
  %23 = load ptr, ptr %10, align 8
  %24 = getelementptr inbounds %struct._netif, ptr %23, i32 0, i32 3
  %25 = load ptr, ptr %24, align 8
  store ptr %25, ptr %11, align 8
  br label %26

26:                                               ; preds = %119, %22
  %27 = load ptr, ptr %11, align 8
  %28 = icmp ne ptr %27, null
  br i1 %28, label %29, label %123

29:                                               ; preds = %26
  %30 = load i32, ptr %9, align 4
  %31 = load ptr, ptr %11, align 8
  %32 = getelementptr inbounds %struct._netaddr, ptr %31, i32 0, i32 3
  %33 = load i32, ptr %32, align 4
  %34 = icmp eq i32 %30, %33
  br i1 %34, label %35, label %119

35:                                               ; preds = %29
  %36 = load i32, ptr %9, align 4
  %37 = icmp eq i32 %36, 2
  br i1 %37, label %38, label %64

38:                                               ; preds = %35
  %39 = load ptr, ptr %11, align 8
  %40 = getelementptr inbounds %struct._netaddr, ptr %39, i32 0, i32 0
  %41 = load ptr, ptr %40, align 8
  %42 = getelementptr inbounds %struct.sockaddr_in, ptr %41, i32 0, i32 2
  %43 = getelementptr inbounds %struct.in_addr, ptr %42, i32 0, i32 0
  %44 = load i32, ptr %43, align 4
  %45 = call i32 @htonl(i32 noundef %44) #9
  store i32 %45, ptr %12, align 4
  %46 = load ptr, ptr %6, align 8
  %47 = load ptr, ptr %8, align 8
  %48 = call i32 @getInetAddress_addr(ptr noundef %46, ptr noundef %47)
  store i32 %48, ptr %13, align 4
  %49 = load ptr, ptr %6, align 8
  %50 = load ptr, ptr %49, align 8
  %51 = getelementptr inbounds %struct.JNINativeInterface_, ptr %50, i32 0, i32 228
  %52 = load ptr, ptr %51, align 8
  %53 = load ptr, ptr %6, align 8
  %54 = call zeroext i8 %52(ptr noundef %53)
  %55 = icmp ne i8 %54, 0
  br i1 %55, label %56, label %57

56:                                               ; preds = %38
  store ptr null, ptr %5, align 8
  br label %128

57:                                               ; preds = %38
  %58 = load i32, ptr %12, align 4
  %59 = load i32, ptr %13, align 4
  %60 = icmp eq i32 %58, %59
  br i1 %60, label %61, label %63

61:                                               ; preds = %57
  %62 = load ptr, ptr %10, align 8
  store ptr %62, ptr %5, align 8
  br label %128

63:                                               ; preds = %57
  br label %118

64:                                               ; preds = %35
  %65 = load i32, ptr %9, align 4
  %66 = icmp eq i32 %65, 10
  br i1 %66, label %67, label %117

67:                                               ; preds = %64
  %68 = load ptr, ptr %11, align 8
  %69 = getelementptr inbounds %struct._netaddr, ptr %68, i32 0, i32 0
  %70 = load ptr, ptr %69, align 8
  %71 = getelementptr inbounds %struct.sockaddr_in6, ptr %70, i32 0, i32 3
  store ptr %71, ptr %14, align 8
  %72 = load ptr, ptr %6, align 8
  %73 = load ptr, ptr %8, align 8
  %74 = getelementptr inbounds [16 x i8], ptr %15, i64 0, i64 0
  %75 = call zeroext i8 @getInet6Address_ipaddress(ptr noundef %72, ptr noundef %73, ptr noundef %74)
  %76 = load ptr, ptr %6, align 8
  %77 = load ptr, ptr %8, align 8
  %78 = call i32 @getInet6Address_scopeid(ptr noundef %76, ptr noundef %77)
  store i32 %78, ptr %17, align 4
  %79 = load i32, ptr %17, align 4
  %80 = icmp ne i32 %79, 0
  br i1 %80, label %81, label %90

81:                                               ; preds = %67
  %82 = load i32, ptr %17, align 4
  %83 = load ptr, ptr %11, align 8
  %84 = getelementptr inbounds %struct._netaddr, ptr %83, i32 0, i32 0
  %85 = load ptr, ptr %84, align 8
  %86 = getelementptr inbounds %struct.sockaddr_in6, ptr %85, i32 0, i32 4
  %87 = load i32, ptr %86, align 4
  %88 = icmp ne i32 %82, %87
  br i1 %88, label %89, label %90

89:                                               ; preds = %81
  br label %123

90:                                               ; preds = %81, %67
  store i32 0, ptr %16, align 4
  br label %91

91:                                               ; preds = %108, %90
  %92 = load i32, ptr %16, align 4
  %93 = icmp slt i32 %92, 16
  br i1 %93, label %94, label %111

94:                                               ; preds = %91
  %95 = load i32, ptr %16, align 4
  %96 = sext i32 %95 to i64
  %97 = getelementptr inbounds [16 x i8], ptr %15, i64 0, i64 %96
  %98 = load i8, ptr %97, align 1
  %99 = sext i8 %98 to i32
  %100 = load ptr, ptr %14, align 8
  %101 = load i32, ptr %16, align 4
  %102 = sext i32 %101 to i64
  %103 = getelementptr inbounds i8, ptr %100, i64 %102
  %104 = load i8, ptr %103, align 1
  %105 = sext i8 %104 to i32
  %106 = icmp ne i32 %99, %105
  br i1 %106, label %107, label %108

107:                                              ; preds = %94
  br label %111

108:                                              ; preds = %94
  %109 = load i32, ptr %16, align 4
  %110 = add nsw i32 %109, 1
  store i32 %110, ptr %16, align 4
  br label %91, !llvm.loop !17

111:                                              ; preds = %107, %91
  %112 = load i32, ptr %16, align 4
  %113 = icmp sge i32 %112, 16
  br i1 %113, label %114, label %116

114:                                              ; preds = %111
  %115 = load ptr, ptr %10, align 8
  store ptr %115, ptr %5, align 8
  br label %128

116:                                              ; preds = %111
  br label %117

117:                                              ; preds = %116, %64
  br label %118

118:                                              ; preds = %117, %63
  br label %119

119:                                              ; preds = %118, %29
  %120 = load ptr, ptr %11, align 8
  %121 = getelementptr inbounds %struct._netaddr, ptr %120, i32 0, i32 4
  %122 = load ptr, ptr %121, align 8
  store ptr %122, ptr %11, align 8
  br label %26, !llvm.loop !18

123:                                              ; preds = %89, %26
  %124 = load ptr, ptr %10, align 8
  %125 = getelementptr inbounds %struct._netif, ptr %124, i32 0, i32 5
  %126 = load ptr, ptr %125, align 8
  store ptr %126, ptr %10, align 8
  br label %19, !llvm.loop !19

127:                                              ; preds = %19
  store ptr null, ptr %5, align 8
  br label %128

128:                                              ; preds = %127, %114, %61, %56
  %129 = load ptr, ptr %5, align 8
  ret ptr %129
}