; Function Attrs: nounwind uwtable
define internal fastcc ptr @find_bound_interface(ptr noundef %0, ptr noundef readonly %1, ptr noundef %2, i32 noundef %3) unnamed_addr #0 {
  %5 = alloca [16 x i8], align 16
  %.not57 = icmp eq ptr %1, null
  br i1 %.not57, label %.thread, label %.lr.ph61

.lr.ph61:                                         ; preds = %4
  switch i32 %3, label %.thread [
    i32 2, label %.lr.ph61.split.us
    i32 10, label %.lr.ph61.split.us63
  ]

.lr.ph61.split.us:                                ; preds = %.lr.ph61, %._crit_edge51.split.us.us
  %.03458.us = phi ptr [ %8, %._crit_edge51.split.us.us ], [ %1, %.lr.ph61 ]
  %6 = getelementptr inbounds i8, ptr %.03458.us, i64 16
  %.03548.us = load ptr, ptr %6, align 8
  %.not3849.us = icmp eq ptr %.03548.us, null
  br i1 %.not3849.us, label %._crit_edge51.split.us.us, label %.lr.ph.us

._crit_edge51.split.us.us:                        ; preds = %24, %.lr.ph61.split.us
  %7 = getelementptr inbounds i8, ptr %.03458.us, i64 32
  %8 = load ptr, ptr %7, align 8
  %.not.us = icmp eq ptr %8, null
  br i1 %.not.us, label %.thread, label %.lr.ph61.split.us, !llvm.loop !16

.lr.ph.us:                                        ; preds = %.lr.ph61.split.us, %24
  %.03550.us.us = phi ptr [ %.035.us.us, %24 ], [ %.03548.us, %.lr.ph61.split.us ]
  %9 = getelementptr inbounds i8, ptr %.03550.us.us, i64 20
  %10 = load i32, ptr %9, align 4
  %11 = icmp eq i32 %10, 2
  br i1 %11, label %12, label %24

12:                                               ; preds = %.lr.ph.us
  %13 = load ptr, ptr %.03550.us.us, align 8
  %14 = getelementptr inbounds i8, ptr %13, i64 4
  %15 = load i32, ptr %14, align 4
  %16 = tail call i32 @getInetAddress_addr(ptr noundef %0, ptr noundef %2) #14
  %17 = load ptr, ptr %0, align 8
  %18 = getelementptr inbounds i8, ptr %17, i64 1824
  %19 = load ptr, ptr %18, align 8
  %20 = tail call zeroext i8 %19(ptr noundef nonnull %0) #14
  %.not42.us.us = icmp eq i8 %20, 0
  br i1 %.not42.us.us, label %21, label %.thread

21:                                               ; preds = %12
  %22 = tail call i32 @htonl(i32 noundef %15) #16
  %23 = icmp eq i32 %22, %16
  br i1 %23, label %.thread, label %24

24:                                               ; preds = %21, %.lr.ph.us
  %25 = getelementptr inbounds i8, ptr %.03550.us.us, i64 24
  %.035.us.us = load ptr, ptr %25, align 8
  %.not38.us.us = icmp eq ptr %.035.us.us, null
  br i1 %.not38.us.us, label %._crit_edge51.split.us.us, label %.lr.ph.us, !llvm.loop !17

.lr.ph61.split.us63:                              ; preds = %.lr.ph61, %._crit_edge.split.us.us
  %.03458.us64 = phi ptr [ %28, %._crit_edge.split.us.us ], [ %1, %.lr.ph61 ]
  %26 = getelementptr inbounds i8, ptr %.03458.us64, i64 16
  %.03548.us65 = load ptr, ptr %26, align 8
  %.not3849.us66 = icmp eq ptr %.03548.us65, null
  br i1 %.not3849.us66, label %._crit_edge.split.us.us, label %.lr.ph.us69

._crit_edge.split.us.us:                          ; preds = %.loopexit.us.us, %37, %.lr.ph61.split.us63
  %27 = getelementptr inbounds i8, ptr %.03458.us64, i64 32
  %28 = load ptr, ptr %27, align 8
  %.not.us68 = icmp eq ptr %28, null
  br i1 %.not.us68, label %.thread, label %.lr.ph61.split.us63, !llvm.loop !16

.lr.ph.us69:                                      ; preds = %.lr.ph61.split.us63, %.loopexit.us.us
  %.03550.us53.us = phi ptr [ %.035.us54.us, %.loopexit.us.us ], [ %.03548.us65, %.lr.ph61.split.us63 ]
  %29 = getelementptr inbounds i8, ptr %.03550.us53.us, i64 20
  %30 = load i32, ptr %29, align 4
  %31 = icmp eq i32 %30, 10
  br i1 %31, label %32, label %.loopexit.us.us

32:                                               ; preds = %.lr.ph.us69
  %33 = load ptr, ptr %.03550.us53.us, align 8
  %34 = getelementptr inbounds i8, ptr %33, i64 8
  %35 = call zeroext i8 @getInet6Address_ipaddress(ptr noundef %0, ptr noundef %2, ptr noundef nonnull %5) #14
  %36 = call i32 @getInet6Address_scopeid(ptr noundef %0, ptr noundef %2) #14
  %.not39.us.us = icmp eq i32 %36, 0
  br i1 %.not39.us.us, label %.preheader, label %37

37:                                               ; preds = %32
  %38 = load ptr, ptr %.03550.us53.us, align 8
  %39 = getelementptr inbounds i8, ptr %38, i64 24
  %40 = load i32, ptr %39, align 4
  %.not40.us.us = icmp eq i32 %36, %40
  br i1 %.not40.us.us, label %.preheader, label %._crit_edge.split.us.us

.preheader:                                       ; preds = %37, %32
  br label %42

41:                                               ; preds = %42
  %indvars.iv.next = add nuw nsw i64 %indvars.iv, 1
  %exitcond.not = icmp eq i64 %indvars.iv.next, 16
  br i1 %exitcond.not, label %.thread, label %42, !llvm.loop !19

42:                                               ; preds = %.preheader, %41
  %indvars.iv = phi i64 [ %indvars.iv.next, %41 ], [ 0, %.preheader ]
  %43 = getelementptr inbounds [16 x i8], ptr %5, i64 0, i64 %indvars.iv
  %44 = load i8, ptr %43, align 1
  %45 = getelementptr inbounds i8, ptr %34, i64 %indvars.iv
  %46 = load i8, ptr %45, align 1
  %.not41.us.us = icmp eq i8 %44, %46
  br i1 %.not41.us.us, label %41, label %.loopexit.us.us

.loopexit.us.us:                                  ; preds = %42, %.lr.ph.us69
  %47 = getelementptr inbounds i8, ptr %.03550.us53.us, i64 24
  %.035.us54.us = load ptr, ptr %47, align 8
  %.not38.us55.us = icmp eq ptr %.035.us54.us, null
  br i1 %.not38.us55.us, label %._crit_edge.split.us.us, label %.lr.ph.us69, !llvm.loop !17

.thread:                                          ; preds = %._crit_edge.split.us.us, %41, %._crit_edge51.split.us.us, %12, %21, %.lr.ph61, %4
  %.0 = phi ptr [ null, %4 ], [ null, %.lr.ph61 ], [ %.03458.us, %21 ], [ null, %12 ], [ null, %._crit_edge51.split.us.us ], [ %.03458.us64, %41 ], [ null, %._crit_edge.split.us.us ]
  ret ptr %.0
}